; Function Attrs: mustprogress uwtable
define void @_ZNK8QuantLib16MarkovFunctional13zerobondArrayEddRKNS_5ArrayE(ptr dead_on_unwind noalias writable sret(%"class.QuantLib::Array") align 8 %agg.result, ptr noundef nonnull align 8 dereferenceable(1344) %this, double noundef %T, double noundef %t, ptr nocapture noundef nonnull readonly align 8 dereferenceable(16) %y) local_unnamed_addr #1 align 2 personality ptr @__gxx_personality_v0 {
entry:
  %ref.tmp = alloca %"class.QuantLib::Array", align 8
  %ref.tmp2 = alloca %"class.QuantLib::Array", align 8
  call void @llvm.lifetime.start.p0(i64 16, ptr nonnull %ref.tmp) #32
  call void @_ZNK8QuantLib16MarkovFunctional21deflatedZerobondArrayEddRKNS_5ArrayE(ptr dead_on_unwind nonnull writable sret(%"class.QuantLib::Array") align 8 %ref.tmp, ptr noundef nonnull align 8 dereferenceable(1344) %this, double noundef %T, double noundef %t, ptr noundef nonnull align 8 dereferenceable(16) %y)
  call void @llvm.lifetime.start.p0(i64 16, ptr nonnull %ref.tmp2) #32
  invoke void @_ZNK8QuantLib16MarkovFunctional14numeraireArrayEdRKNS_5ArrayE(ptr dead_on_unwind nonnull writable sret(%"class.QuantLib::Array") align 8 %ref.tmp2, ptr noundef nonnull align 8 dereferenceable(1344) %this, double noundef %t, ptr noundef nonnull align 8 dereferenceable(16) %y)
          to label %invoke.cont unwind label %lpad

invoke.cont:                                      ; preds = %entry
  invoke void @_ZN8QuantLibmlEONS_5ArrayES1_(ptr dead_on_unwind writable sret(%"class.QuantLib::Array") align 8 %agg.result, ptr noundef nonnull align 8 dereferenceable(16) %ref.tmp, ptr noundef nonnull align 8 dereferenceable(16) %ref.tmp2)
          to label %invoke.cont4 unwind label %lpad3

invoke.cont4:                                     ; preds = %invoke.cont
  %0 = load ptr, ptr %ref.tmp2, align 8, !tbaa !18
  %cmp.not.i.i = icmp eq ptr %0, null
  br i1 %cmp.not.i.i, label %_ZN8QuantLib5ArrayD2Ev.exit, label %_ZNKSt14default_deleteIA_dEclIdEENSt9enable_ifIXsr14is_convertibleIPA_T_PS0_EE5valueEvE4typeEPS4_.exit.i.i

_ZNKSt14default_deleteIA_dEclIdEENSt9enable_ifIXsr14is_convertibleIPA_T_PS0_EE5valueEvE4typeEPS4_.exit.i.i: ; preds = %invoke.cont4
  call void @_ZdaPv(ptr noundef nonnull %0) #35
  br label %_ZN8QuantLib5ArrayD2Ev.exit

_ZN8QuantLib5ArrayD2Ev.exit:                      ; preds = %invoke.cont4, %_ZNKSt14default_deleteIA_dEclIdEENSt9enable_ifIXsr14is_convertibleIPA_T_PS0_EE5valueEvE4typeEPS4_.exit.i.i
  call void @llvm.lifetime.end.p0(i64 16, ptr nonnull %ref.tmp2) #32
  %1 = load ptr, ptr %ref.tmp, align 8, !tbaa !18
  %cmp.not.i.i4 = icmp eq ptr %1, null
  br i1 %cmp.not.i.i4, label %_ZN8QuantLib5ArrayD2Ev.exit6, label %_ZNKSt14default_deleteIA_dEclIdEENSt9enable_ifIXsr14is_convertibleIPA_T_PS0_EE5valueEvE4typeEPS4_.exit.i.i5

_ZNKSt14default_deleteIA_dEclIdEENSt9enable_ifIXsr14is_convertibleIPA_T_PS0_EE5valueEvE4typeEPS4_.exit.i.i5: ; preds = %_ZN8QuantLib5ArrayD2Ev.exit
  call void @_ZdaPv(ptr noundef nonnull %1) #35
  br label %_ZN8QuantLib5ArrayD2Ev.exit6

_ZN8QuantLib5ArrayD2Ev.exit6:                     ; preds = %_ZN8QuantLib5ArrayD2Ev.exit, %_ZNKSt14default_deleteIA_dEclIdEENSt9enable_ifIXsr14is_convertibleIPA_T_PS0_EE5valueEvE4typeEPS4_.exit.i.i5
  call void @llvm.lifetime.end.p0(i64 16, ptr nonnull %ref.tmp) #32
  ret void

lpad:                                             ; preds = %entry
  %2 = landingpad { ptr, i32 }
          cleanup
  br label %ehcleanup

lpad3:                                            ; preds = %invoke.cont
  %3 = landingpad { ptr, i32 }
          cleanup
  %4 = load ptr, ptr %ref.tmp2, align 8, !tbaa !18
  %cmp.not.i.i7 = icmp eq ptr %4, null
  br i1 %cmp.not.i.i7, label %ehcleanup, label %_ZNKSt14default_deleteIA_dEclIdEENSt9enable_ifIXsr14is_convertibleIPA_T_PS0_EE5valueEvE4typeEPS4_.exit.i.i8

_ZNKSt14default_deleteIA_dEclIdEENSt9enable_ifIXsr14is_convertibleIPA_T_PS0_EE5valueEvE4typeEPS4_.exit.i.i8: ; preds = %lpad3
  call void @_ZdaPv(ptr noundef nonnull %4) #35
  br label %ehcleanup

ehcleanup:                                        ; preds = %_ZNKSt14default_deleteIA_dEclIdEENSt9enable_ifIXsr14is_convertibleIPA_T_PS0_EE5valueEvE4typeEPS4_.exit.i.i8, %lpad3, %lpad
  %.pn = phi { ptr, i32 } [ %2, %lpad ], [ %3, %lpad3 ], [ %3, %_ZNKSt14default_deleteIA_dEclIdEENSt9enable_ifIXsr14is_convertibleIPA_T_PS0_EE5valueEvE4typeEPS4_.exit.i.i8 ]
  call void @llvm.lifetime.end.p0(i64 16, ptr nonnull %ref.tmp2) #32
  %5 = load ptr, ptr %ref.tmp, align 8, !tbaa !18
  %cmp.not.i.i10 = icmp eq ptr %5, null
  br i1 %cmp.not.i.i10, label %_ZN8QuantLib5ArrayD2Ev.exit12, label %_ZNKSt14default_deleteIA_dEclIdEENSt9enable_ifIXsr14is_convertibleIPA_T_PS0_EE5valueEvE4typeEPS4_.exit.i.i11

_ZNKSt14default_deleteIA_dEclIdEENSt9enable_ifIXsr14is_convertibleIPA_T_PS0_EE5valueEvE4typeEPS4_.exit.i.i11: ; preds = %ehcleanup
  call void @_ZdaPv(ptr noundef nonnull %5) #35
  br label %_ZN8QuantLib5ArrayD2Ev.exit12

_ZN8QuantLib5ArrayD2Ev.exit12:                    ; preds = %ehcleanup, %_ZNKSt14default_deleteIA_dEclIdEENSt9enable_ifIXsr14is_convertibleIPA_T_PS0_EE5valueEvE4typeEPS4_.exit.i.i11
  call void @llvm.lifetime.end.p0(i64 16, ptr nonnull %ref.tmp) #32
  resume { ptr, i32 } %.pn
}